; Function Attrs: nounwind uwtable
define void @Gia_ManSimOneBitTest(ptr noundef readonly captures(none) %0) local_unnamed_addr #1 {
  %2 = getelementptr i8, ptr %0, i64 64
  %.val15 = load ptr, ptr %2, align 8, !tbaa !48
  %3 = getelementptr i8, ptr %.val15, i64 4
  %.val15.val = load i32, ptr %3, align 4, !tbaa !34
  %4 = tail call noalias dereferenceable_or_null(16) ptr @malloc(i64 noundef 16) #25
  %5 = add i32 %.val15.val, -1
  %or.cond.i.i = icmp ult i32 %5, 15
  %spec.store.select.i.i = select i1 %or.cond.i.i, i32 16, i32 %.val15.val
  %6 = getelementptr i8, ptr %4, i64 4
  store i32 %spec.store.select.i.i, ptr %4, align 8, !tbaa !35
  %.not.i.i = icmp eq i32 %spec.store.select.i.i, 0
  br i1 %.not.i.i, label %Vec_IntAlloc.exit.thread.i, label %Vec_IntAlloc.exit.i

Vec_IntAlloc.exit.thread.i:                       ; preds = %1
  %7 = getelementptr inbounds nuw i8, ptr %4, i64 8
  store ptr null, ptr %7, align 8, !tbaa !36
  store i32 %.val15.val, ptr %6, align 4, !tbaa !34
  br label %Vec_IntStart.exit

Vec_IntAlloc.exit.i:                              ; preds = %1
  %8 = sext i32 %spec.store.select.i.i to i64
  %9 = shl nsw i64 %8, 2
  %10 = tail call noalias ptr @malloc(i64 noundef %9) #25
  %11 = getelementptr inbounds nuw i8, ptr %4, i64 8
  store ptr %10, ptr %11, align 8, !tbaa !36
  store i32 %.val15.val, ptr %6, align 4, !tbaa !34
  %.not.i = icmp eq ptr %10, null
  br i1 %.not.i, label %Vec_IntStart.exit, label %12

12:                                               ; preds = %Vec_IntAlloc.exit.i
  %13 = sext i32 %.val15.val to i64
  %14 = shl nsw i64 %13, 2
  tail call void @llvm.memset.p0.i64(ptr nonnull align 4 %10, i8 0, i64 %14, i1 false)
  br label %Vec_IntStart.exit

Vec_IntStart.exit:                                ; preds = %Vec_IntAlloc.exit.thread.i, %Vec_IntAlloc.exit.i, %12
  %15 = phi ptr [ null, %Vec_IntAlloc.exit.thread.i ], [ null, %Vec_IntAlloc.exit.i ], [ %10, %12 ]
  %16 = icmp sgt i32 %.val15.val, 0
  %wide.trip.count.i = zext i32 %.val15.val to i64
  br i1 %16, label %.preheader.us.us, label %.preheader

.preheader.us.us:                                 ; preds = %Vec_IntStart.exit, %Vec_IntSum.exit.loopexit.us.us
  %.01217.us.us = phi i32 [ %27, %Vec_IntSum.exit.loopexit.us.us ], [ 0, %Vec_IntStart.exit ]
  br label %20

._crit_edge.us.us:                                ; preds = %20, %._crit_edge.us.us
  %indvars.iv.i.us.us = phi i64 [ %indvars.iv.next.i.us.us, %._crit_edge.us.us ], [ 0, %20 ]
  %.08.i.us.us = phi i32 [ %19, %._crit_edge.us.us ], [ 0, %20 ]
  %17 = getelementptr inbounds nuw i32, ptr %15, i64 %indvars.iv.i.us.us
  %18 = load i32, ptr %17, align 4, !tbaa !37
  %19 = add nsw i32 %18, %.08.i.us.us
  %indvars.iv.next.i.us.us = add nuw nsw i64 %indvars.iv.i.us.us, 1
  %exitcond.not.i.us.us = icmp eq i64 %indvars.iv.next.i.us.us, %wide.trip.count.i
  br i1 %exitcond.not.i.us.us, label %Vec_IntSum.exit.loopexit.us.us, label %._crit_edge.us.us, !llvm.loop !167

20:                                               ; preds = %20, %.preheader.us.us
  %indvars.iv = phi i64 [ %indvars.iv.next, %20 ], [ 0, %.preheader.us.us ]
  %21 = getelementptr inbounds nuw i32, ptr %15, i64 %indvars.iv
  %22 = load i32, ptr %21, align 4, !tbaa !37
  %23 = tail call i32 @rand() #26
  %24 = and i32 %23, 1
  %25 = xor i32 %24, %22
  store i32 %25, ptr %21, align 4, !tbaa !37
  %indvars.iv.next = add nuw nsw i64 %indvars.iv, 1
  %exitcond32.not = icmp eq i64 %indvars.iv.next, %wide.trip.count.i
  br i1 %exitcond32.not, label %._crit_edge.us.us, label %20, !llvm.loop !168

Vec_IntSum.exit.loopexit.us.us:                   ; preds = %._crit_edge.us.us
  %26 = tail call i32 (ptr, ...) @printf(ptr noundef nonnull dereferenceable(1) @.str.17, i32 noundef %19)
  tail call void @Gia_ManSimOneBit(ptr noundef %0, ptr noundef nonnull %4)
  %27 = add nuw nsw i32 %.01217.us.us, 1
  %exitcond33.not = icmp eq i32 %27, 10
  br i1 %exitcond33.not, label %.split.us, label %.preheader.us.us, !llvm.loop !169

.preheader:                                       ; preds = %Vec_IntStart.exit, %.preheader
  %.01217 = phi i32 [ %29, %.preheader ], [ 0, %Vec_IntStart.exit ]
  %28 = tail call i32 (ptr, ...) @printf(ptr noundef nonnull dereferenceable(1) @.str.17, i32 noundef 0)
  tail call void @Gia_ManSimOneBit(ptr noundef %0, ptr noundef nonnull %4)
  %29 = add nuw nsw i32 %.01217, 1
  %exitcond.not = icmp eq i32 %29, 10
  br i1 %exitcond.not, label %.split.us, label %.preheader, !llvm.loop !169

.split.us:                                        ; preds = %.preheader, %Vec_IntSum.exit.loopexit.us.us
  ret void
}